target datalayout = "e-m:e-p270:32:32-p271:32:32-p272:64:64-i64:64-i128:128-f80:128-n8:16:32:64-S128"
target triple = "x86_64-pc-linux-gnu"

%struct.UCHARBUF = type { ptr, ptr, ptr, i32, i32, i32, ptr, ptr, i8, i8 }

; Function Attrs: mustprogress uwtable
define internal void @_ZL14ucbuf_closebufP8UCHARBUF(ptr noundef %0) #0 {
  %2 = alloca ptr, align 8
  store ptr %0, ptr %2, align 8, !tbaa !28
  %3 = load ptr, ptr %2, align 8, !tbaa !28
  %4 = getelementptr inbounds nuw %struct.UCHARBUF, ptr %3, i32 0, i32 0
  %5 = load ptr, ptr %4, align 8, !tbaa !34
  call void @uprv_free_77(ptr noundef %5)
  %6 = load ptr, ptr %2, align 8, !tbaa !28
  %7 = getelementptr inbounds nuw %struct.UCHARBUF, ptr %6, i32 0, i32 0
  store ptr null, ptr %7, align 8, !tbaa !34
  ret void
}

; Function Attrs: mustprogress uwtable
define void @ucbuf_close(ptr noundef %0) #0 {
  %2 = alloca ptr, align 8
  store ptr %0, ptr %2, align 8, !tbaa !28
  %3 = load ptr, ptr %2, align 8, !tbaa !28
  %4 = icmp ne ptr %3, null
  br i1 %4, label %5, label %20

5:                                                ; preds = %1
  %6 = load ptr, ptr %2, align 8, !tbaa !28
  %7 = getelementptr inbounds nuw %struct.UCHARBUF, ptr %6, i32 0, i32 7
  %8 = load ptr, ptr %7, align 8, !tbaa !37
  %9 = icmp ne ptr %8, null
  br i1 %9, label %10, label %14

10:                                               ; preds = %5
  %11 = load ptr, ptr %2, align 8, !tbaa !28
  %12 = getelementptr inbounds nuw %struct.UCHARBUF, ptr %11, i32 0, i32 7
  %13 = load ptr, ptr %12, align 8, !tbaa !37
  call void @ucnv_close_77(ptr noundef %13)
  br label %14

14:                                               ; preds = %10, %5
  %15 = load ptr, ptr %2, align 8, !tbaa !28
  %16 = getelementptr inbounds nuw %struct.UCHARBUF, ptr %15, i32 0, i32 6
  %17 = load ptr, ptr %16, align 8, !tbaa !36
  call void @T_FileStream_close(ptr noundef %17)
  %18 = load ptr, ptr %2, align 8, !tbaa !28
  call void @_ZL14ucbuf_closebufP8UCHARBUF(ptr noundef %18)
  %19 = load ptr, ptr %2, align 8, !tbaa !28
  call void @uprv_free_77(ptr noundef %19)
  br label %20

20:                                               ; preds = %14, %1
  ret void
}