; Function Attrs: mustprogress uwtable
define void @ucbuf_close(ptr noundef %0) local_unnamed_addr #0 {
  %.not = icmp eq ptr %0, null
  br i1 %.not, label %10, label %2

2:                                                ; preds = %1
  %3 = getelementptr inbounds nuw i8, ptr %0, i64 48
  %4 = load ptr, ptr %3, align 8, !tbaa !26
  %.not7 = icmp eq ptr %4, null
  br i1 %.not7, label %6, label %5

5:                                                ; preds = %2
  tail call void @ucnv_close_77(ptr noundef nonnull %4)
  br label %6

6:                                                ; preds = %5, %2
  %7 = getelementptr inbounds nuw i8, ptr %0, i64 40
  %8 = load ptr, ptr %7, align 8, !tbaa !25
  tail call void @T_FileStream_close(ptr noundef %8)
  %9 = load ptr, ptr %0, align 8, !tbaa !23
  tail call void @uprv_free_77(ptr noundef %9)
  store ptr null, ptr %0, align 8, !tbaa !23
  tail call void @uprv_free_77(ptr noundef nonnull %0)
  br label %10

10:                                               ; preds = %6, %1
  ret void
}